target datalayout = "e-m:e-p270:32:32-p271:32:32-p272:64:64-i64:64-i128:128-f80:128-n8:16:32:64-S128"
target triple = "x86_64-pc-linux-gnu"

%struct.Gmac = type { %struct.Aes }
%struct.Aes = type { [60 x i32], i32, i32, [8 x i8], [4 x i32], [4 x i32], [2 x i32], i32, [4 x i8], %struct.Gcm, ptr, [8 x i8] }
%struct.Gcm = type { [16 x i8], [32 x [16 x i8]] }
%struct.WC_RNG = type { %struct.OS_Seed, ptr, ptr, i8 }
%struct.OS_Seed = type { i32 }

@devId = internal global i32 -2, align 4
@__const.gmac_test.k1 = private unnamed_addr constant [16 x i8] c"\89\C9I\E9\C8\04\AF\01MV\04\B3\94Y\F2\C8", align 16
@__const.gmac_test.iv1 = private unnamed_addr constant [12 x i8] c"\D1\B1\04\C8\15\BF\1E\94\E2\8C\8F\16", align 1
@__const.gmac_test.a1 = private unnamed_addr constant [16 x i8] c"\82\AD\CDc\8D?\A9\D9\F3\E8A\00\D6\1E\07w", align 16
@__const.gmac_test.t1 = private unnamed_addr constant [16 x i8] c"\88\DB\9Db\17.\D0C\AA\10\F1m\22}\C4\1B", align 16
@__const.gmac_test.k2 = private unnamed_addr constant [16 x i8] c"@\F7\EC\B2Rm\AA\D4t%\1D\F4\88\9E\F6[", align 16
@__const.gmac_test.iv2 = private unnamed_addr constant [12 x i8] c"\EE\9Cn\06\15EE\03\1A`$\A7", align 1
@__const.gmac_test.a2 = private unnamed_addr constant [16 x i8] c"\94\81,\87\07N\15\184\B85\AF\1C\A5~V", align 16
@__const.gmac_test.t2 = private unnamed_addr constant [15 x i8] c"\C6\81y\8E=\DA\B0\9F\8D\83\B0\BB\14\B6\91", align 1
@__const.gmac_test.badT = private unnamed_addr constant [16 x i8] c"\DE\AD\BE\EF\17.\D0C\AA\10\F1m\22}\C4\1B", align 16

; Function Attrs: nounwind uwtable
define dso_local i32 @gmac_test() #0 {
  %1 = alloca i32, align 4
  %2 = alloca [1 x %struct.Gmac], align 16
  %3 = alloca i32, align 4
  %4 = alloca [16 x i8], align 16
  %5 = alloca [12 x i8], align 1
  %6 = alloca [16 x i8], align 16
  %7 = alloca [16 x i8], align 16
  %8 = alloca [16 x i8], align 16
  %9 = alloca [12 x i8], align 1
  %10 = alloca [16 x i8], align 16
  %11 = alloca [15 x i8], align 1
  %12 = alloca [16 x i8], align 16
  %13 = alloca [16 x i8], align 16
  %14 = alloca %struct.WC_RNG, align 8
  %15 = alloca [12 x i8], align 1
  %16 = alloca i32, align 4
  call void @llvm.lifetime.start.p0(i64 848, ptr %2) #10
  call void @llvm.lifetime.start.p0(i64 4, ptr %3) #10
  call void @llvm.lifetime.start.p0(i64 16, ptr %4) #10
  call void @llvm.memcpy.p0.p0.i64(ptr align 16 %4, ptr align 16 @__const.gmac_test.k1, i64 16, i1 false)
  call void @llvm.lifetime.start.p0(i64 12, ptr %5) #10
  call void @llvm.memcpy.p0.p0.i64(ptr align 1 %5, ptr align 1 @__const.gmac_test.iv1, i64 12, i1 false)
  call void @llvm.lifetime.start.p0(i64 16, ptr %6) #10
  call void @llvm.memcpy.p0.p0.i64(ptr align 16 %6, ptr align 16 @__const.gmac_test.a1, i64 16, i1 false)
  call void @llvm.lifetime.start.p0(i64 16, ptr %7) #10
  call void @llvm.memcpy.p0.p0.i64(ptr align 16 %7, ptr align 16 @__const.gmac_test.t1, i64 16, i1 false)
  call void @llvm.lifetime.start.p0(i64 16, ptr %8) #10
  call void @llvm.memcpy.p0.p0.i64(ptr align 16 %8, ptr align 16 @__const.gmac_test.k2, i64 16, i1 false)
  call void @llvm.lifetime.start.p0(i64 12, ptr %9) #10
  call void @llvm.memcpy.p0.p0.i64(ptr align 1 %9, ptr align 1 @__const.gmac_test.iv2, i64 12, i1 false)
  call void @llvm.lifetime.start.p0(i64 16, ptr %10) #10
  call void @llvm.memcpy.p0.p0.i64(ptr align 16 %10, ptr align 16 @__const.gmac_test.a2, i64 16, i1 false)
  call void @llvm.lifetime.start.p0(i64 15, ptr %11) #10
  call void @llvm.memcpy.p0.p0.i64(ptr align 1 %11, ptr align 1 @__const.gmac_test.t2, i64 15, i1 false)
  call void @llvm.lifetime.start.p0(i64 16, ptr %12) #10
  br label %17

17:                                               ; preds = %0
  br label %18

18:                                               ; preds = %17
  br label %19

19:                                               ; preds = %18
  %20 = getelementptr inbounds [1 x %struct.Gmac], ptr %2, i64 0, i64 0
  call void @llvm.memset.p0.i64(ptr align 16 %20, i8 0, i64 848, i1 false)
  %21 = getelementptr inbounds [1 x %struct.Gmac], ptr %2, i64 0, i64 0
  %22 = getelementptr inbounds nuw %struct.Gmac, ptr %21, i32 0, i32 0
  %23 = call i32 @wc_AesInit(ptr noundef %22, ptr noundef null, i32 noundef -2)
  %24 = getelementptr inbounds [16 x i8], ptr %12, i64 0, i64 0
  call void @llvm.memset.p0.i64(ptr align 16 %24, i8 0, i64 16, i1 false)
  %25 = getelementptr inbounds [1 x %struct.Gmac], ptr %2, i64 0, i64 0
  %26 = getelementptr inbounds [16 x i8], ptr %4, i64 0, i64 0
  %27 = call i32 @wc_GmacSetKey(ptr noundef %25, ptr noundef %26, i32 noundef 16)
  %28 = getelementptr inbounds [1 x %struct.Gmac], ptr %2, i64 0, i64 0
  %29 = getelementptr inbounds [12 x i8], ptr %5, i64 0, i64 0
  %30 = getelementptr inbounds [16 x i8], ptr %6, i64 0, i64 0
  %31 = getelementptr inbounds [16 x i8], ptr %12, i64 0, i64 0
  %32 = call i32 @wc_GmacUpdate(ptr noundef %28, ptr noundef %29, i32 noundef 12, ptr noundef %30, i32 noundef 16, ptr noundef %31, i32 noundef 16)
  %33 = getelementptr inbounds [16 x i8], ptr %7, i64 0, i64 0
  %34 = getelementptr inbounds [16 x i8], ptr %12, i64 0, i64 0
  %35 = call i32 @memcmp(ptr noundef %33, ptr noundef %34, i64 noundef 16) #11
  %36 = icmp ne i32 %35, 0
  br i1 %36, label %37, label %41

37:                                               ; preds = %19
  br label %38

38:                                               ; preds = %37
  store i32 -16125, ptr %3, align 4, !tbaa !14
  br label %201

39:                                               ; No predecessors!
  br label %40

40:                                               ; preds = %39
  br label %41

41:                                               ; preds = %40, %19
  %42 = getelementptr inbounds [16 x i8], ptr %12, i64 0, i64 0
  call void @llvm.memset.p0.i64(ptr align 16 %42, i8 0, i64 16, i1 false)
  %43 = getelementptr inbounds [1 x %struct.Gmac], ptr %2, i64 0, i64 0
  %44 = getelementptr inbounds [16 x i8], ptr %8, i64 0, i64 0
  %45 = call i32 @wc_GmacSetKey(ptr noundef %43, ptr noundef %44, i32 noundef 16)
  %46 = getelementptr inbounds [1 x %struct.Gmac], ptr %2, i64 0, i64 0
  %47 = getelementptr inbounds [12 x i8], ptr %9, i64 0, i64 0
  %48 = getelementptr inbounds [16 x i8], ptr %10, i64 0, i64 0
  %49 = getelementptr inbounds [16 x i8], ptr %12, i64 0, i64 0
  %50 = call i32 @wc_GmacUpdate(ptr noundef %46, ptr noundef %47, i32 noundef 12, ptr noundef %48, i32 noundef 16, ptr noundef %49, i32 noundef 15)
  %51 = getelementptr inbounds [15 x i8], ptr %11, i64 0, i64 0
  %52 = getelementptr inbounds [16 x i8], ptr %12, i64 0, i64 0
  %53 = call i32 @memcmp(ptr noundef %51, ptr noundef %52, i64 noundef 15) #11
  %54 = icmp ne i32 %53, 0
  br i1 %54, label %55, label %59

55:                                               ; preds = %41
  br label %56

56:                                               ; preds = %55
  store i32 -16134, ptr %3, align 4, !tbaa !14
  br label %201

57:                                               ; No predecessors!
  br label %58

58:                                               ; preds = %57
  br label %59

59:                                               ; preds = %58, %41
  call void @llvm.lifetime.start.p0(i64 16, ptr %13) #10
  call void @llvm.memcpy.p0.p0.i64(ptr align 16 %13, ptr align 16 @__const.gmac_test.badT, i64 16, i1 false)
  call void @llvm.lifetime.start.p0(i64 32, ptr %14) #10
  call void @llvm.lifetime.start.p0(i64 12, ptr %15) #10
  %60 = load i32, ptr @devId, align 4, !tbaa !14
  %61 = call i32 @wc_InitRng_ex(ptr noundef %14, ptr noundef null, i32 noundef %60)
  store i32 %61, ptr %3, align 4, !tbaa !14
  %62 = load i32, ptr %3, align 4, !tbaa !14
  %63 = icmp ne i32 %62, 0
  br i1 %63, label %64, label %79

64:                                               ; preds = %59
  br label %65

65:                                               ; preds = %64
  %66 = load i32, ptr %3, align 4, !tbaa !14
  %67 = sub nsw i32 0, %66
  %68 = zext i32 %67 to i64
  %69 = and i64 %68, 2047
  %70 = trunc i64 %69 to i32
  %71 = sext i32 %70 to i64
  %72 = mul nsw i64 %71, 100000
  %73 = add nsw i64 16150, %72
  %74 = add nsw i64 %73, 536870912
  %75 = sub nsw i64 0, %74
  %76 = trunc i64 %75 to i32
  store i32 %76, ptr %3, align 4, !tbaa !14
  store i32 6, ptr %16, align 4
  br label %198

77:                                               ; No predecessors!
  br label %78

78:                                               ; preds = %77
  br label %79

79:                                               ; preds = %78, %59
  %80 = getelementptr inbounds [16 x i8], ptr %4, i64 0, i64 0
  %81 = getelementptr inbounds [12 x i8], ptr %5, i64 0, i64 0
  %82 = getelementptr inbounds [16 x i8], ptr %6, i64 0, i64 0
  %83 = getelementptr inbounds [16 x i8], ptr %7, i64 0, i64 0
  %84 = call i32 @wc_GmacVerify(ptr noundef %80, i32 noundef 16, ptr noundef %81, i32 noundef 12, ptr noundef %82, i32 noundef 16, ptr noundef %83, i32 noundef 16)
  store i32 %84, ptr %3, align 4, !tbaa !14
  %85 = load i32, ptr %3, align 4, !tbaa !14
  %86 = icmp ne i32 %85, 0
  br i1 %86, label %87, label %102

87:                                               ; preds = %79
  br label %88

88:                                               ; preds = %87
  %89 = load i32, ptr %3, align 4, !tbaa !14
  %90 = sub nsw i32 0, %89
  %91 = zext i32 %90 to i64
  %92 = and i64 %91, 2047
  %93 = trunc i64 %92 to i32
  %94 = sext i32 %93 to i64
  %95 = mul nsw i64 %94, 100000
  %96 = add nsw i64 16160, %95
  %97 = add nsw i64 %96, 536870912
  %98 = sub nsw i64 0, %97
  %99 = trunc i64 %98 to i32
  store i32 %99, ptr %3, align 4, !tbaa !14
  store i32 6, ptr %16, align 4
  br label %198

100:                                              ; No predecessors!
  br label %101

101:                                              ; preds = %100
  br label %102

102:                                              ; preds = %101, %79
  %103 = getelementptr inbounds [16 x i8], ptr %4, i64 0, i64 0
  %104 = getelementptr inbounds [12 x i8], ptr %5, i64 0, i64 0
  %105 = getelementptr inbounds [16 x i8], ptr %6, i64 0, i64 0
  %106 = getelementptr inbounds [16 x i8], ptr %13, i64 0, i64 0
  %107 = call i32 @wc_GmacVerify(ptr noundef %103, i32 noundef 16, ptr noundef %104, i32 noundef 12, ptr noundef %105, i32 noundef 16, ptr noundef %106, i32 noundef 16)
  store i32 %107, ptr %3, align 4, !tbaa !14
  %108 = load i32, ptr %3, align 4, !tbaa !14
  %109 = icmp ne i32 %108, -180
  br i1 %109, label %110, label %125

110:                                              ; preds = %102
  br label %111

111:                                              ; preds = %110
  %112 = load i32, ptr %3, align 4, !tbaa !14
  %113 = sub nsw i32 0, %112
  %114 = zext i32 %113 to i64
  %115 = and i64 %114, 2047
  %116 = trunc i64 %115 to i32
  %117 = sext i32 %116 to i64
  %118 = mul nsw i64 %117, 100000
  %119 = add nsw i64 16164, %118
  %120 = add nsw i64 %119, 536870912
  %121 = sub nsw i64 0, %120
  %122 = trunc i64 %121 to i32
  store i32 %122, ptr %3, align 4, !tbaa !14
  store i32 6, ptr %16, align 4
  br label %198

123:                                              ; No predecessors!
  br label %124

124:                                              ; preds = %123
  br label %125

125:                                              ; preds = %124, %102
  %126 = getelementptr inbounds [16 x i8], ptr %8, i64 0, i64 0
  %127 = getelementptr inbounds [12 x i8], ptr %9, i64 0, i64 0
  %128 = getelementptr inbounds [16 x i8], ptr %10, i64 0, i64 0
  %129 = getelementptr inbounds [15 x i8], ptr %11, i64 0, i64 0
  %130 = call i32 @wc_GmacVerify(ptr noundef %126, i32 noundef 16, ptr noundef %127, i32 noundef 12, ptr noundef %128, i32 noundef 16, ptr noundef %129, i32 noundef 15)
  store i32 %130, ptr %3, align 4, !tbaa !14
  %131 = load i32, ptr %3, align 4, !tbaa !14
  %132 = icmp ne i32 %131, 0
  br i1 %132, label %133, label %148

133:                                              ; preds = %125
  br label %134

134:                                              ; preds = %133
  %135 = load i32, ptr %3, align 4, !tbaa !14
  %136 = sub nsw i32 0, %135
  %137 = zext i32 %136 to i64
  %138 = and i64 %137, 2047
  %139 = trunc i64 %138 to i32
  %140 = sext i32 %139 to i64
  %141 = mul nsw i64 %140, 100000
  %142 = add nsw i64 16168, %141
  %143 = add nsw i64 %142, 536870912
  %144 = sub nsw i64 0, %143
  %145 = trunc i64 %144 to i32
  store i32 %145, ptr %3, align 4, !tbaa !14
  store i32 6, ptr %16, align 4
  br label %198

146:                                              ; No predecessors!
  br label %147

147:                                              ; preds = %146
  br label %148

148:                                              ; preds = %147, %125
  %149 = getelementptr inbounds [16 x i8], ptr %12, i64 0, i64 0
  call void @llvm.memset.p0.i64(ptr align 16 %149, i8 0, i64 16, i1 false)
  %150 = getelementptr inbounds [12 x i8], ptr %15, i64 0, i64 0
  call void @llvm.memset.p0.i64(ptr align 1 %150, i8 0, i64 12, i1 false)
  %151 = getelementptr inbounds [16 x i8], ptr %4, i64 0, i64 0
  %152 = getelementptr inbounds [12 x i8], ptr %15, i64 0, i64 0
  %153 = getelementptr inbounds [16 x i8], ptr %6, i64 0, i64 0
  %154 = getelementptr inbounds [16 x i8], ptr %12, i64 0, i64 0
  %155 = call i32 @wc_Gmac(ptr noundef %151, i32 noundef 16, ptr noundef %152, i32 noundef 12, ptr noundef %153, i32 noundef 16, ptr noundef %154, i32 noundef 16, ptr noundef %14)
  store i32 %155, ptr %3, align 4, !tbaa !14
  %156 = load i32, ptr %3, align 4, !tbaa !14
  %157 = icmp ne i32 %156, 0
  br i1 %157, label %158, label %173

158:                                              ; preds = %148
  br label %159

159:                                              ; preds = %158
  %160 = load i32, ptr %3, align 4, !tbaa !14
  %161 = sub nsw i32 0, %160
  %162 = zext i32 %161 to i64
  %163 = and i64 %162, 2047
  %164 = trunc i64 %163 to i32
  %165 = sext i32 %164 to i64
  %166 = mul nsw i64 %165, 100000
  %167 = add nsw i64 16175, %166
  %168 = add nsw i64 %167, 536870912
  %169 = sub nsw i64 0, %168
  %170 = trunc i64 %169 to i32
  store i32 %170, ptr %3, align 4, !tbaa !14
  store i32 6, ptr %16, align 4
  br label %198

171:                                              ; No predecessors!
  br label %172

172:                                              ; preds = %171
  br label %173

173:                                              ; preds = %172, %148
  %174 = getelementptr inbounds [16 x i8], ptr %4, i64 0, i64 0
  %175 = getelementptr inbounds [12 x i8], ptr %15, i64 0, i64 0
  %176 = getelementptr inbounds [16 x i8], ptr %6, i64 0, i64 0
  %177 = getelementptr inbounds [16 x i8], ptr %12, i64 0, i64 0
  %178 = call i32 @wc_GmacVerify(ptr noundef %174, i32 noundef 16, ptr noundef %175, i32 noundef 12, ptr noundef %176, i32 noundef 16, ptr noundef %177, i32 noundef 16)
  store i32 %178, ptr %3, align 4, !tbaa !14
  %179 = load i32, ptr %3, align 4, !tbaa !14
  %180 = icmp ne i32 %179, 0
  br i1 %180, label %181, label %196

181:                                              ; preds = %173
  br label %182

182:                                              ; preds = %181
  %183 = load i32, ptr %3, align 4, !tbaa !14
  %184 = sub nsw i32 0, %183
  %185 = zext i32 %184 to i64
  %186 = and i64 %185, 2047
  %187 = trunc i64 %186 to i32
  %188 = sext i32 %187 to i64
  %189 = mul nsw i64 %188, 100000
  %190 = add nsw i64 16179, %189
  %191 = add nsw i64 %190, 536870912
  %192 = sub nsw i64 0, %191
  %193 = trunc i64 %192 to i32
  store i32 %193, ptr %3, align 4, !tbaa !14
  store i32 6, ptr %16, align 4
  br label %198

194:                                              ; No predecessors!
  br label %195

195:                                              ; preds = %194
  br label %196

196:                                              ; preds = %195, %173
  %197 = call i32 @wc_FreeRng(ptr noundef %14)
  store i32 0, ptr %16, align 4
  br label %198

198:                                              ; preds = %182, %159, %134, %111, %88, %65, %196
  call void @llvm.lifetime.end.p0(i64 12, ptr %15) #10
  call void @llvm.lifetime.end.p0(i64 32, ptr %14) #10
  call void @llvm.lifetime.end.p0(i64 16, ptr %13) #10
  %199 = load i32, ptr %16, align 4
  switch i32 %199, label %205 [
    i32 0, label %200
    i32 6, label %201
  ]

200:                                              ; preds = %198
  store i32 0, ptr %3, align 4, !tbaa !14
  br label %201

201:                                              ; preds = %200, %198, %56, %38
  %202 = getelementptr inbounds [1 x %struct.Gmac], ptr %2, i64 0, i64 0
  %203 = getelementptr inbounds nuw %struct.Gmac, ptr %202, i32 0, i32 0
  call void @wc_AesFree(ptr noundef %203)
  %204 = load i32, ptr %3, align 4, !tbaa !14
  store i32 %204, ptr %1, align 4
  store i32 1, ptr %16, align 4
  br label %205

205:                                              ; preds = %201, %198
  call void @llvm.lifetime.end.p0(i64 16, ptr %12) #10
  call void @llvm.lifetime.end.p0(i64 15, ptr %11) #10
  call void @llvm.lifetime.end.p0(i64 16, ptr %10) #10
  call void @llvm.lifetime.end.p0(i64 12, ptr %9) #10
  call void @llvm.lifetime.end.p0(i64 16, ptr %8) #10
  call void @llvm.lifetime.end.p0(i64 16, ptr %7) #10
  call void @llvm.lifetime.end.p0(i64 16, ptr %6) #10
  call void @llvm.lifetime.end.p0(i64 12, ptr %5) #10
  call void @llvm.lifetime.end.p0(i64 16, ptr %4) #10
  call void @llvm.lifetime.end.p0(i64 4, ptr %3) #10
  call void @llvm.lifetime.end.p0(i64 848, ptr %2) #10
  %206 = load i32, ptr %1, align 4
  ret i32 %206
}