; Function Attrs: nounwind uwtable
define dso_local range(i32 -741587091, 1) i32 @gmac_test() local_unnamed_addr #0 {
  %1 = alloca [1 x %struct.Gmac], align 16
  %2 = alloca [16 x i8], align 16
  %3 = alloca [12 x i8], align 1
  %4 = alloca [16 x i8], align 16
  %5 = alloca [16 x i8], align 16
  %6 = alloca [16 x i8], align 16
  %7 = alloca [12 x i8], align 1
  %8 = alloca [16 x i8], align 16
  %9 = alloca [15 x i8], align 1
  %10 = alloca [16 x i8], align 16
  %11 = alloca [16 x i8], align 16
  %12 = alloca %struct.WC_RNG, align 8
  %13 = alloca [12 x i8], align 1
  call void @llvm.lifetime.start.p0(i64 848, ptr nonnull %1) #19
  call void @llvm.lifetime.start.p0(i64 16, ptr nonnull %2) #19
  call void @llvm.memcpy.p0.p0.i64(ptr noundef nonnull align 16 dereferenceable(16) %2, ptr noundef nonnull align 16 dereferenceable(16) @__const.gmac_test.k1, i64 16, i1 false)
  call void @llvm.lifetime.start.p0(i64 12, ptr nonnull %3) #19
  call void @llvm.memcpy.p0.p0.i64(ptr noundef nonnull align 1 dereferenceable(12) %3, ptr noundef nonnull align 1 dereferenceable(12) @__const.gmac_test.iv1, i64 12, i1 false)
  call void @llvm.lifetime.start.p0(i64 16, ptr nonnull %4) #19
  call void @llvm.memcpy.p0.p0.i64(ptr noundef nonnull align 16 dereferenceable(16) %4, ptr noundef nonnull align 16 dereferenceable(16) @__const.gmac_test.a1, i64 16, i1 false)
  call void @llvm.lifetime.start.p0(i64 16, ptr nonnull %5) #19
  call void @llvm.memcpy.p0.p0.i64(ptr noundef nonnull align 16 dereferenceable(16) %5, ptr noundef nonnull align 16 dereferenceable(16) @__const.gmac_test.t1, i64 16, i1 false)
  call void @llvm.lifetime.start.p0(i64 16, ptr nonnull %6) #19
  call void @llvm.memcpy.p0.p0.i64(ptr noundef nonnull align 16 dereferenceable(16) %6, ptr noundef nonnull align 16 dereferenceable(16) @__const.gmac_test.k2, i64 16, i1 false)
  call void @llvm.lifetime.start.p0(i64 12, ptr nonnull %7) #19
  call void @llvm.memcpy.p0.p0.i64(ptr noundef nonnull align 1 dereferenceable(12) %7, ptr noundef nonnull align 1 dereferenceable(12) @__const.gmac_test.iv2, i64 12, i1 false)
  call void @llvm.lifetime.start.p0(i64 16, ptr nonnull %8) #19
  call void @llvm.memcpy.p0.p0.i64(ptr noundef nonnull align 16 dereferenceable(16) %8, ptr noundef nonnull align 16 dereferenceable(16) @__const.gmac_test.a2, i64 16, i1 false)
  call void @llvm.lifetime.start.p0(i64 15, ptr nonnull %9) #19
  call void @llvm.memcpy.p0.p0.i64(ptr noundef nonnull align 1 dereferenceable(15) %9, ptr noundef nonnull align 1 dereferenceable(15) @__const.gmac_test.t2, i64 15, i1 false)
  call void @llvm.lifetime.start.p0(i64 16, ptr nonnull %10) #19
  call void @llvm.memset.p0.i64(ptr noundef nonnull align 16 dereferenceable(848) %1, i8 0, i64 848, i1 false)
  %14 = call i32 @wc_AesInit(ptr noundef nonnull %1, ptr noundef null, i32 noundef -2) #19
  call void @llvm.memset.p0.i64(ptr noundef nonnull align 16 dereferenceable(16) %10, i8 0, i64 16, i1 false)
  %15 = call i32 @wc_GmacSetKey(ptr noundef nonnull %1, ptr noundef nonnull %2, i32 noundef 16) #19
  %16 = call i32 @wc_GmacUpdate(ptr noundef nonnull %1, ptr noundef nonnull %3, i32 noundef 12, ptr noundef nonnull %4, i32 noundef 16, ptr noundef nonnull %10, i32 noundef 16) #19
  %bcmp = call i32 @bcmp(ptr noundef nonnull dereferenceable(16) %5, ptr noundef nonnull dereferenceable(16) %10, i64 16)
  %.not = icmp eq i32 %bcmp, 0
  br i1 %.not, label %17, label %37

17:                                               ; preds = %0
  call void @llvm.memset.p0.i64(ptr noundef nonnull align 16 dereferenceable(16) %10, i8 0, i64 16, i1 false)
  %18 = call i32 @wc_GmacSetKey(ptr noundef nonnull %1, ptr noundef nonnull %6, i32 noundef 16) #19
  %19 = call i32 @wc_GmacUpdate(ptr noundef nonnull %1, ptr noundef nonnull %7, i32 noundef 12, ptr noundef nonnull %8, i32 noundef 16, ptr noundef nonnull %10, i32 noundef 15) #19
  %bcmp24 = call i32 @bcmp(ptr noundef nonnull dereferenceable(15) %9, ptr noundef nonnull dereferenceable(15) %10, i64 15)
  %.not25 = icmp eq i32 %bcmp24, 0
  br i1 %.not25, label %20, label %37

20:                                               ; preds = %17
  call void @llvm.lifetime.start.p0(i64 16, ptr nonnull %11) #19
  call void @llvm.memcpy.p0.p0.i64(ptr noundef nonnull align 16 dereferenceable(16) %11, ptr noundef nonnull align 16 dereferenceable(16) @__const.gmac_test.badT, i64 16, i1 false)
  call void @llvm.lifetime.start.p0(i64 32, ptr nonnull %12) #19
  call void @llvm.lifetime.start.p0(i64 12, ptr nonnull %13) #19
  %21 = call i32 @wc_InitRng_ex(ptr noundef nonnull %12, ptr noundef null, i32 noundef -2) #19
  %.not26 = icmp eq i32 %21, 0
  br i1 %.not26, label %22, label %.thread

22:                                               ; preds = %20
  %23 = call i32 @wc_GmacVerify(ptr noundef nonnull %2, i32 noundef 16, ptr noundef nonnull %3, i32 noundef 12, ptr noundef nonnull %4, i32 noundef 16, ptr noundef nonnull %5, i32 noundef 16) #19
  %.not27 = icmp eq i32 %23, 0
  br i1 %.not27, label %24, label %.thread

24:                                               ; preds = %22
  %25 = call i32 @wc_GmacVerify(ptr noundef nonnull %2, i32 noundef 16, ptr noundef nonnull %3, i32 noundef 12, ptr noundef nonnull %4, i32 noundef 16, ptr noundef nonnull %11, i32 noundef 16) #19
  %.not28 = icmp eq i32 %25, -180
  br i1 %.not28, label %26, label %.thread

26:                                               ; preds = %24
  %27 = call i32 @wc_GmacVerify(ptr noundef nonnull %6, i32 noundef 16, ptr noundef nonnull %7, i32 noundef 12, ptr noundef nonnull %8, i32 noundef 16, ptr noundef nonnull %9, i32 noundef 15) #19
  %.not29 = icmp eq i32 %27, 0
  br i1 %.not29, label %28, label %.thread

28:                                               ; preds = %26
  call void @llvm.memset.p0.i64(ptr noundef nonnull align 16 dereferenceable(16) %10, i8 0, i64 16, i1 false)
  call void @llvm.memset.p0.i64(ptr noundef nonnull align 1 dereferenceable(12) %13, i8 0, i64 12, i1 false)
  %29 = call i32 @wc_Gmac(ptr noundef nonnull %2, i32 noundef 16, ptr noundef nonnull %13, i32 noundef 12, ptr noundef nonnull %4, i32 noundef 16, ptr noundef nonnull %10, i32 noundef 16, ptr noundef nonnull %12) #19
  %.not30 = icmp eq i32 %29, 0
  br i1 %.not30, label %30, label %.thread

30:                                               ; preds = %28
  %31 = call i32 @wc_GmacVerify(ptr noundef nonnull %2, i32 noundef 16, ptr noundef nonnull %13, i32 noundef 12, ptr noundef nonnull %4, i32 noundef 16, ptr noundef nonnull %10, i32 noundef 16) #19
  %.not31 = icmp eq i32 %31, 0
  br i1 %.not31, label %35, label %.thread

.thread:                                          ; preds = %30, %28, %26, %24, %22, %20
  %.sink53 = phi i32 [ %21, %20 ], [ %23, %22 ], [ %25, %24 ], [ %27, %26 ], [ %29, %28 ], [ %31, %30 ]
  %.sink = phi i32 [ -536887062, %20 ], [ -536887072, %22 ], [ -536887076, %24 ], [ -536887080, %26 ], [ -536887087, %28 ], [ -536887091, %30 ]
  %32 = sub nsw i32 0, %.sink53
  %33 = and i32 %32, 2047
  %narrow.neg48 = mul nsw i32 %33, -100000
  %34 = add nsw i32 %narrow.neg48, %.sink
  br label %.sink.split

35:                                               ; preds = %30
  %36 = call i32 @wc_FreeRng(ptr noundef nonnull %12) #19
  br label %.sink.split

.sink.split:                                      ; preds = %.thread, %35
  %.015.ph = phi i32 [ %34, %.thread ], [ 0, %35 ]
  call void @llvm.lifetime.end.p0(i64 12, ptr nonnull %13) #19
  call void @llvm.lifetime.end.p0(i64 32, ptr nonnull %12) #19
  call void @llvm.lifetime.end.p0(i64 16, ptr nonnull %11) #19
  br label %37

37:                                               ; preds = %.sink.split, %0, %17
  %.015 = phi i32 [ -16125, %0 ], [ -16134, %17 ], [ %.015.ph, %.sink.split ]
  call void @wc_AesFree(ptr noundef nonnull %1) #19
  call void @llvm.lifetime.end.p0(i64 16, ptr nonnull %10) #19
  call void @llvm.lifetime.end.p0(i64 15, ptr nonnull %9) #19
  call void @llvm.lifetime.end.p0(i64 16, ptr nonnull %8) #19
  call void @llvm.lifetime.end.p0(i64 12, ptr nonnull %7) #19
  call void @llvm.lifetime.end.p0(i64 16, ptr nonnull %6) #19
  call void @llvm.lifetime.end.p0(i64 16, ptr nonnull %5) #19
  call void @llvm.lifetime.end.p0(i64 16, ptr nonnull %4) #19
  call void @llvm.lifetime.end.p0(i64 12, ptr nonnull %3) #19
  call void @llvm.lifetime.end.p0(i64 16, ptr nonnull %2) #19
  call void @llvm.lifetime.end.p0(i64 848, ptr nonnull %1) #19
  ret i32 %.015
}